target datalayout = "e-m:e-p270:32:32-p271:32:32-p272:64:64-i64:64-i128:128-f80:128-n8:16:32:64-S128"
target triple = "x86_64-pc-linux-gnu"

%struct.AVStream = type { ptr, i32, i32, ptr, ptr, %struct.AVRational, i64, i64, i64, i32, i32, %struct.AVRational, ptr, %struct.AVRational, %struct.AVPacket, i32, %struct.AVRational, i32 }
%struct.AVPacket = type { ptr, i64, i64, ptr, i32, i32, i32, ptr, i32, i64, i64, ptr, ptr, %struct.AVRational }
%struct.AVRational = type { i32, i32 }
%struct.AVFormatContext = type { ptr, ptr, ptr, ptr, ptr, i32, i32, ptr, i32, ptr, i32, ptr, ptr, i64, i64, i64, i32, i32, i32, i64, i64, ptr, i32, i32, ptr, i32, i32, i32, i32, ptr, i64, i32, i32, %struct.AVIOInterruptCB, i32, i32, i32, i32, i64, i32, i32, i32, i32, i32, i32, i32, i32, i32, i32, i32, i32, i64, i32, i32, i32, i32, i32, ptr, ptr, ptr, ptr, i32, ptr, ptr, ptr, ptr, i32, ptr, ptr, i64, ptr, ptr, ptr, i64 }
%struct.AVIOInterruptCB = type { ptr, ptr }

; Function Attrs: nounwind uwtable
define i32 @ff_find_stream_index(ptr noundef %0, i32 noundef %1) #0 {
  %3 = alloca i32, align 4
  %4 = alloca ptr, align 8
  %5 = alloca i32, align 4
  %6 = alloca i32, align 4
  %7 = alloca i32, align 4
  store ptr %0, ptr %4, align 8, !tbaa !35
  store i32 %1, ptr %5, align 4, !tbaa !33
  call void @llvm.lifetime.start.p0(i64 4, ptr %6) #6
  store i32 0, ptr %6, align 4, !tbaa !33
  br label %8

8:                                                ; preds = %30, %2
  %9 = load i32, ptr %6, align 4, !tbaa !33
  %10 = load ptr, ptr %4, align 8, !tbaa !35
  %11 = getelementptr inbounds nuw %struct.AVFormatContext, ptr %10, i32 0, i32 6
  %12 = load i32, ptr %11, align 4, !tbaa !63
  %13 = icmp ult i32 %9, %12
  br i1 %13, label %15, label %14

14:                                               ; preds = %8
  store i32 2, ptr %7, align 4
  br label %33

15:                                               ; preds = %8
  %16 = load ptr, ptr %4, align 8, !tbaa !35
  %17 = getelementptr inbounds nuw %struct.AVFormatContext, ptr %16, i32 0, i32 7
  %18 = load ptr, ptr %17, align 8, !tbaa !64
  %19 = load i32, ptr %6, align 4, !tbaa !33
  %20 = zext i32 %19 to i64
  %21 = getelementptr inbounds nuw ptr, ptr %18, i64 %20
  %22 = load ptr, ptr %21, align 8, !tbaa !4
  %23 = getelementptr inbounds nuw %struct.AVStream, ptr %22, i32 0, i32 2
  %24 = load i32, ptr %23, align 4, !tbaa !105
  %25 = load i32, ptr %5, align 4, !tbaa !33
  %26 = icmp eq i32 %24, %25
  br i1 %26, label %27, label %29

27:                                               ; preds = %15
  %28 = load i32, ptr %6, align 4, !tbaa !33
  store i32 %28, ptr %3, align 4
  store i32 1, ptr %7, align 4
  br label %33

29:                                               ; preds = %15
  br label %30

30:                                               ; preds = %29
  %31 = load i32, ptr %6, align 4, !tbaa !33
  %32 = add i32 %31, 1
  store i32 %32, ptr %6, align 4, !tbaa !33
  br label %8, !llvm.loop !106

33:                                               ; preds = %27, %14
  call void @llvm.lifetime.end.p0(i64 4, ptr %6) #6
  %34 = load i32, ptr %7, align 4
  switch i32 %34, label %38 [
    i32 2, label %35
    i32 1, label %36
  ]

35:                                               ; preds = %33
  store i32 -1, ptr %3, align 4
  br label %36

36:                                               ; preds = %35, %33
  %37 = load i32, ptr %3, align 4
  ret i32 %37

38:                                               ; preds = %33
  unreachable
}